target datalayout = "e-m:e-p270:32:32-p271:32:32-p272:64:64-i64:64-i128:128-f80:128-n8:16:32:64-S128"
target triple = "x86_64-pc-linux-gnu"

%struct.TupleTableSlotOps = type { i64, ptr, ptr, ptr, ptr, ptr, ptr, ptr, ptr, ptr, ptr, ptr, ptr }
%struct.StringInfoData = type { ptr, i32, i32, i32 }
%struct.LogicalRepTupleData = type { ptr, ptr, i32 }
%struct.LogicalRepRelMapEntry = type { %struct.LogicalRepRelation, i8, i32, ptr, ptr, i8, i32, i8, i64 }
%struct.LogicalRepRelation = type { i32, ptr, ptr, i32, ptr, ptr, i8, i8, ptr }
%struct.nameData = type { [64 x i8] }
%struct.ApplyErrorCallbackArg = type { i32, ptr, i32, i32, i64, ptr }
%struct.TupleTableSlot = type { i32, i16, i16, ptr, ptr, ptr, ptr, ptr, %struct.ItemPointerData, i32 }
%struct.ItemPointerData = type { %struct.BlockIdData, i16 }
%struct.BlockIdData = type { i16, i16 }
%struct.TupleDescData = type { i32, i32, i32, i32, ptr, [0 x %struct.CompactAttribute] }
%struct.CompactAttribute = type { i32, i16, i8, i8, i8, i8, i8, i8, i8 }
%struct.AttrMap = type { ptr, i32 }
%struct.FormData_pg_attribute = type { i32, %struct.nameData, i32, i16, i16, i32, i16, i8, i8, i8, i8, i8, i8, i8, i8, i8, i8, i8, i16, i32 }

@.str.3 = private unnamed_addr constant [9 x i8] c"worker.c\00", align 1
@apply_error_callback_arg = internal global { i32, [4 x i8], ptr, i32, i32, i64, ptr } { i32 0, [4 x i8] zeroinitializer, ptr null, i32 -1, i32 0, i64 0, ptr null }, align 8
@.str.50 = private unnamed_addr constant [62 x i8] c"incorrect binary data format in logical replication column %d\00", align 1
@__func__.slot_modify_data = private unnamed_addr constant [17 x i8] c"slot_modify_data\00", align 1

; Function Attrs: inlinehint nounwind uwtable
define internal void @slot_getsomeattrs(ptr noundef %0, i32 noundef %1) #3 {
  %3 = alloca ptr, align 8
  %4 = alloca i32, align 4
  store ptr %0, ptr %3, align 8
  store i32 %1, ptr %4, align 4
  %5 = load ptr, ptr %3, align 8
  %6 = getelementptr inbounds nuw %struct.TupleTableSlot, ptr %5, i32 0, i32 2
  %7 = load i16, ptr %6, align 2
  %8 = sext i16 %7 to i32
  %9 = load i32, ptr %4, align 4
  %10 = icmp slt i32 %8, %9
  br i1 %10, label %11, label %14

11:                                               ; preds = %2
  %12 = load ptr, ptr %3, align 8
  %13 = load i32, ptr %4, align 4
  call void @slot_getsomeattrs_int(ptr noundef %12, i32 noundef %13)
  br label %14

14:                                               ; preds = %11, %2
  ret void
}

; Function Attrs: inlinehint nounwind uwtable
define internal ptr @TupleDescAttr(ptr noundef %0, i32 noundef %1) #3 {
  %3 = alloca ptr, align 8
  %4 = alloca i32, align 4
  %5 = alloca ptr, align 8
  store ptr %0, ptr %3, align 8
  store i32 %1, ptr %4, align 4
  call void @llvm.lifetime.start.p0(i64 8, ptr %5) #12
  %6 = load ptr, ptr %3, align 8
  %7 = load ptr, ptr %3, align 8
  %8 = getelementptr inbounds nuw %struct.TupleDescData, ptr %7, i32 0, i32 0
  %9 = load i32, ptr %8, align 8
  %10 = sext i32 %9 to i64
  %11 = mul i64 %10, 16
  %12 = add i64 24, %11
  %13 = getelementptr inbounds nuw i8, ptr %6, i64 %12
  store ptr %13, ptr %5, align 8
  %14 = load ptr, ptr %5, align 8
  %15 = load i32, ptr %4, align 4
  %16 = sext i32 %15 to i64
  %17 = getelementptr inbounds %struct.FormData_pg_attribute, ptr %14, i64 %16
  call void @llvm.lifetime.end.p0(i64 8, ptr %5) #12
  ret ptr %17
}

; Function Attrs: inlinehint nounwind uwtable
define internal void @slot_getallattrs(ptr noundef %0) #3 {
  %2 = alloca ptr, align 8
  store ptr %0, ptr %2, align 8
  %3 = load ptr, ptr %2, align 8
  %4 = load ptr, ptr %2, align 8
  %5 = getelementptr inbounds nuw %struct.TupleTableSlot, ptr %4, i32 0, i32 4
  %6 = load ptr, ptr %5, align 8
  %7 = getelementptr inbounds nuw %struct.TupleDescData, ptr %6, i32 0, i32 0
  %8 = load i32, ptr %7, align 8
  call void @slot_getsomeattrs(ptr noundef %3, i32 noundef %8)
  ret void
}

; Function Attrs: inlinehint nounwind uwtable
define internal ptr @ExecClearTuple(ptr noundef %0) #3 {
  %2 = alloca ptr, align 8
  store ptr %0, ptr %2, align 8
  %3 = load ptr, ptr %2, align 8
  %4 = getelementptr inbounds nuw %struct.TupleTableSlot, ptr %3, i32 0, i32 3
  %5 = load ptr, ptr %4, align 8
  %6 = getelementptr inbounds nuw %struct.TupleTableSlotOps, ptr %5, i32 0, i32 3
  %7 = load ptr, ptr %6, align 8
  %8 = load ptr, ptr %2, align 8
  call void %7(ptr noundef %8)
  %9 = load ptr, ptr %2, align 8
  ret ptr %9
}

; Function Attrs: nounwind uwtable
define internal void @slot_modify_data(ptr noundef %0, ptr noundef %1, ptr noundef %2, ptr noundef %3) #0 {
  %5 = alloca ptr, align 8
  %6 = alloca ptr, align 8
  %7 = alloca ptr, align 8
  %8 = alloca ptr, align 8
  %9 = alloca i32, align 4
  %10 = alloca i32, align 4
  %11 = alloca ptr, align 8
  %12 = alloca i32, align 4
  %13 = alloca i32, align 4
  %14 = alloca ptr, align 8
  %15 = alloca i32, align 4
  %16 = alloca i32, align 4
  %17 = alloca i32, align 4
  %18 = alloca i32, align 4
  store ptr %0, ptr %5, align 8
  store ptr %1, ptr %6, align 8
  store ptr %2, ptr %7, align 8
  store ptr %3, ptr %8, align 8
  call void @llvm.lifetime.start.p0(i64 4, ptr %9) #12
  %19 = load ptr, ptr %5, align 8
  %20 = getelementptr inbounds nuw %struct.TupleTableSlot, ptr %19, i32 0, i32 4
  %21 = load ptr, ptr %20, align 8
  %22 = getelementptr inbounds nuw %struct.TupleDescData, ptr %21, i32 0, i32 0
  %23 = load i32, ptr %22, align 8
  store i32 %23, ptr %9, align 4
  call void @llvm.lifetime.start.p0(i64 4, ptr %10) #12
  %24 = load ptr, ptr %5, align 8
  %25 = call ptr @ExecClearTuple(ptr noundef %24)
  %26 = load ptr, ptr %6, align 8
  call void @slot_getallattrs(ptr noundef %26)
  %27 = load ptr, ptr %5, align 8
  %28 = getelementptr inbounds nuw %struct.TupleTableSlot, ptr %27, i32 0, i32 5
  %29 = load ptr, ptr %28, align 8
  %30 = load ptr, ptr %6, align 8
  %31 = getelementptr inbounds nuw %struct.TupleTableSlot, ptr %30, i32 0, i32 5
  %32 = load ptr, ptr %31, align 8
  %33 = load i32, ptr %9, align 4
  %34 = sext i32 %33 to i64
  %35 = mul i64 %34, 8
  call void @llvm.memcpy.p0.p0.i64(ptr align 8 %29, ptr align 8 %32, i64 %35, i1 false)
  %36 = load ptr, ptr %5, align 8
  %37 = getelementptr inbounds nuw %struct.TupleTableSlot, ptr %36, i32 0, i32 6
  %38 = load ptr, ptr %37, align 8
  %39 = load ptr, ptr %6, align 8
  %40 = getelementptr inbounds nuw %struct.TupleTableSlot, ptr %39, i32 0, i32 6
  %41 = load ptr, ptr %40, align 8
  %42 = load i32, ptr %9, align 4
  %43 = sext i32 %42 to i64
  %44 = mul i64 %43, 1
  call void @llvm.memcpy.p0.p0.i64(ptr align 1 %38, ptr align 1 %41, i64 %44, i1 false)
  store i32 0, ptr %10, align 4
  br label %45

45:                                               ; preds = %196, %4
  %46 = load i32, ptr %10, align 4
  %47 = load i32, ptr %9, align 4
  %48 = icmp slt i32 %46, %47
  br i1 %48, label %49, label %199

49:                                               ; preds = %45
  call void @llvm.lifetime.start.p0(i64 8, ptr %11) #12
  %50 = load ptr, ptr %5, align 8
  %51 = getelementptr inbounds nuw %struct.TupleTableSlot, ptr %50, i32 0, i32 4
  %52 = load ptr, ptr %51, align 8
  %53 = load i32, ptr %10, align 4
  %54 = call ptr @TupleDescAttr(ptr noundef %52, i32 noundef %53)
  store ptr %54, ptr %11, align 8
  call void @llvm.lifetime.start.p0(i64 4, ptr %12) #12
  %55 = load ptr, ptr %7, align 8
  %56 = getelementptr inbounds nuw %struct.LogicalRepRelMapEntry, ptr %55, i32 0, i32 4
  %57 = load ptr, ptr %56, align 8
  %58 = getelementptr inbounds nuw %struct.AttrMap, ptr %57, i32 0, i32 0
  %59 = load ptr, ptr %58, align 8
  %60 = load i32, ptr %10, align 4
  %61 = sext i32 %60 to i64
  %62 = getelementptr inbounds i16, ptr %59, i64 %61
  %63 = load i16, ptr %62, align 2
  %64 = sext i16 %63 to i32
  store i32 %64, ptr %12, align 4
  %65 = load i32, ptr %12, align 4
  %66 = icmp slt i32 %65, 0
  br i1 %66, label %67, label %68

67:                                               ; preds = %49
  store i32 4, ptr %13, align 4
  br label %193

68:                                               ; preds = %49
  %69 = load ptr, ptr %8, align 8
  %70 = getelementptr inbounds nuw %struct.LogicalRepTupleData, ptr %69, i32 0, i32 1
  %71 = load ptr, ptr %70, align 8
  %72 = load i32, ptr %12, align 4
  %73 = sext i32 %72 to i64
  %74 = getelementptr inbounds i8, ptr %71, i64 %73
  %75 = load i8, ptr %74, align 1
  %76 = sext i8 %75 to i32
  %77 = icmp ne i32 %76, 117
  br i1 %77, label %78, label %192

78:                                               ; preds = %68
  call void @llvm.lifetime.start.p0(i64 8, ptr %14) #12
  %79 = load ptr, ptr %8, align 8
  %80 = getelementptr inbounds nuw %struct.LogicalRepTupleData, ptr %79, i32 0, i32 0
  %81 = load ptr, ptr %80, align 8
  %82 = load i32, ptr %12, align 4
  %83 = sext i32 %82 to i64
  %84 = getelementptr inbounds %struct.StringInfoData, ptr %81, i64 %83
  store ptr %84, ptr %14, align 8
  %85 = load i32, ptr %12, align 4
  store i32 %85, ptr getelementptr inbounds nuw (%struct.ApplyErrorCallbackArg, ptr @apply_error_callback_arg, i32 0, i32 2), align 8
  %86 = load ptr, ptr %8, align 8
  %87 = getelementptr inbounds nuw %struct.LogicalRepTupleData, ptr %86, i32 0, i32 1
  %88 = load ptr, ptr %87, align 8
  %89 = load i32, ptr %12, align 4
  %90 = sext i32 %89 to i64
  %91 = getelementptr inbounds i8, ptr %88, i64 %90
  %92 = load i8, ptr %91, align 1
  %93 = sext i8 %92 to i32
  %94 = icmp eq i32 %93, 116
  br i1 %94, label %95, label %120

95:                                               ; preds = %78
  call void @llvm.lifetime.start.p0(i64 4, ptr %15) #12
  call void @llvm.lifetime.start.p0(i64 4, ptr %16) #12
  %96 = load ptr, ptr %11, align 8
  %97 = getelementptr inbounds nuw %struct.FormData_pg_attribute, ptr %96, i32 0, i32 2
  %98 = load i32, ptr %97, align 4
  call void @getTypeInputInfo(i32 noundef %98, ptr noundef %15, ptr noundef %16)
  %99 = load i32, ptr %15, align 4
  %100 = load ptr, ptr %14, align 8
  %101 = getelementptr inbounds nuw %struct.StringInfoData, ptr %100, i32 0, i32 0
  %102 = load ptr, ptr %101, align 8
  %103 = load i32, ptr %16, align 4
  %104 = load ptr, ptr %11, align 8
  %105 = getelementptr inbounds nuw %struct.FormData_pg_attribute, ptr %104, i32 0, i32 5
  %106 = load i32, ptr %105, align 4
  %107 = call i64 @OidInputFunctionCall(i32 noundef %99, ptr noundef %102, i32 noundef %103, i32 noundef %106)
  %108 = load ptr, ptr %5, align 8
  %109 = getelementptr inbounds nuw %struct.TupleTableSlot, ptr %108, i32 0, i32 5
  %110 = load ptr, ptr %109, align 8
  %111 = load i32, ptr %10, align 4
  %112 = sext i32 %111 to i64
  %113 = getelementptr inbounds i64, ptr %110, i64 %112
  store i64 %107, ptr %113, align 8
  %114 = load ptr, ptr %5, align 8
  %115 = getelementptr inbounds nuw %struct.TupleTableSlot, ptr %114, i32 0, i32 6
  %116 = load ptr, ptr %115, align 8
  %117 = load i32, ptr %10, align 4
  %118 = sext i32 %117 to i64
  %119 = getelementptr inbounds i8, ptr %116, i64 %118
  store i8 0, ptr %119, align 1
  call void @llvm.lifetime.end.p0(i64 4, ptr %16) #12
  call void @llvm.lifetime.end.p0(i64 4, ptr %15) #12
  br label %191

120:                                              ; preds = %78
  %121 = load ptr, ptr %8, align 8
  %122 = getelementptr inbounds nuw %struct.LogicalRepTupleData, ptr %121, i32 0, i32 1
  %123 = load ptr, ptr %122, align 8
  %124 = load i32, ptr %12, align 4
  %125 = sext i32 %124 to i64
  %126 = getelementptr inbounds i8, ptr %123, i64 %125
  %127 = load i8, ptr %126, align 1
  %128 = sext i8 %127 to i32
  %129 = icmp eq i32 %128, 98
  br i1 %129, label %130, label %177

130:                                              ; preds = %120
  call void @llvm.lifetime.start.p0(i64 4, ptr %17) #12
  call void @llvm.lifetime.start.p0(i64 4, ptr %18) #12
  %131 = load ptr, ptr %14, align 8
  %132 = getelementptr inbounds nuw %struct.StringInfoData, ptr %131, i32 0, i32 3
  store i32 0, ptr %132, align 8
  %133 = load ptr, ptr %11, align 8
  %134 = getelementptr inbounds nuw %struct.FormData_pg_attribute, ptr %133, i32 0, i32 2
  %135 = load i32, ptr %134, align 4
  call void @getTypeBinaryInputInfo(i32 noundef %135, ptr noundef %17, ptr noundef %18)
  %136 = load i32, ptr %17, align 4
  %137 = load ptr, ptr %14, align 8
  %138 = load i32, ptr %18, align 4
  %139 = load ptr, ptr %11, align 8
  %140 = getelementptr inbounds nuw %struct.FormData_pg_attribute, ptr %139, i32 0, i32 5
  %141 = load i32, ptr %140, align 4
  %142 = call i64 @OidReceiveFunctionCall(i32 noundef %136, ptr noundef %137, i32 noundef %138, i32 noundef %141)
  %143 = load ptr, ptr %5, align 8
  %144 = getelementptr inbounds nuw %struct.TupleTableSlot, ptr %143, i32 0, i32 5
  %145 = load ptr, ptr %144, align 8
  %146 = load i32, ptr %10, align 4
  %147 = sext i32 %146 to i64
  %148 = getelementptr inbounds i64, ptr %145, i64 %147
  store i64 %142, ptr %148, align 8
  %149 = load ptr, ptr %14, align 8
  %150 = getelementptr inbounds nuw %struct.StringInfoData, ptr %149, i32 0, i32 3
  %151 = load i32, ptr %150, align 8
  %152 = load ptr, ptr %14, align 8
  %153 = getelementptr inbounds nuw %struct.StringInfoData, ptr %152, i32 0, i32 1
  %154 = load i32, ptr %153, align 8
  %155 = icmp ne i32 %151, %154
  br i1 %155, label %156, label %170

156:                                              ; preds = %130
  br label %157

157:                                              ; preds = %156
  br i1 true, label %158, label %160

158:                                              ; preds = %157
  %159 = call zeroext i1 @errstart_cold(i32 noundef 21, ptr noundef null) #13
  br i1 %159, label %162, label %167

160:                                              ; preds = %157
  %161 = call zeroext i1 @errstart(i32 noundef 21, ptr noundef null)
  br i1 %161, label %162, label %167

162:                                              ; preds = %160, %158
  %163 = call i32 @errcode(i32 noundef 50462850)
  %164 = load i32, ptr %12, align 4
  %165 = add i32 %164, 1
  %166 = call i32 (ptr, ...) @errmsg(ptr noundef @.str.50, i32 noundef %165)
  call void @errfinish(ptr noundef @.str.3, i32 noundef 967, ptr noundef @__func__.slot_modify_data)
  br label %167

167:                                              ; preds = %162, %160, %158
  unreachable

168:                                              ; No predecessors!
  br label %169

169:                                              ; preds = %168
  br label %170

170:                                              ; preds = %169, %130
  %171 = load ptr, ptr %5, align 8
  %172 = getelementptr inbounds nuw %struct.TupleTableSlot, ptr %171, i32 0, i32 6
  %173 = load ptr, ptr %172, align 8
  %174 = load i32, ptr %10, align 4
  %175 = sext i32 %174 to i64
  %176 = getelementptr inbounds i8, ptr %173, i64 %175
  store i8 0, ptr %176, align 1
  call void @llvm.lifetime.end.p0(i64 4, ptr %18) #12
  call void @llvm.lifetime.end.p0(i64 4, ptr %17) #12
  br label %190

177:                                              ; preds = %120
  %178 = load ptr, ptr %5, align 8
  %179 = getelementptr inbounds nuw %struct.TupleTableSlot, ptr %178, i32 0, i32 5
  %180 = load ptr, ptr %179, align 8
  %181 = load i32, ptr %10, align 4
  %182 = sext i32 %181 to i64
  %183 = getelementptr inbounds i64, ptr %180, i64 %182
  store i64 0, ptr %183, align 8
  %184 = load ptr, ptr %5, align 8
  %185 = getelementptr inbounds nuw %struct.TupleTableSlot, ptr %184, i32 0, i32 6
  %186 = load ptr, ptr %185, align 8
  %187 = load i32, ptr %10, align 4
  %188 = sext i32 %187 to i64
  %189 = getelementptr inbounds i8, ptr %186, i64 %188
  store i8 1, ptr %189, align 1
  br label %190

190:                                              ; preds = %177, %170
  br label %191

191:                                              ; preds = %190, %95
  store i32 -1, ptr getelementptr inbounds nuw (%struct.ApplyErrorCallbackArg, ptr @apply_error_callback_arg, i32 0, i32 2), align 8
  call void @llvm.lifetime.end.p0(i64 8, ptr %14) #12
  br label %192

192:                                              ; preds = %191, %68
  store i32 0, ptr %13, align 4
  br label %193

193:                                              ; preds = %192, %67
  call void @llvm.lifetime.end.p0(i64 4, ptr %12) #12
  call void @llvm.lifetime.end.p0(i64 8, ptr %11) #12
  %194 = load i32, ptr %13, align 4
  switch i32 %194, label %202 [
    i32 0, label %195
    i32 4, label %196
  ]

195:                                              ; preds = %193
  br label %196

196:                                              ; preds = %195, %193
  %197 = load i32, ptr %10, align 4
  %198 = add i32 %197, 1
  store i32 %198, ptr %10, align 4
  br label %45, !llvm.loop !18

199:                                              ; preds = %45
  %200 = load ptr, ptr %5, align 8
  %201 = call ptr @ExecStoreVirtualTuple(ptr noundef %200)
  call void @llvm.lifetime.end.p0(i64 4, ptr %10) #12
  call void @llvm.lifetime.end.p0(i64 4, ptr %9) #12
  ret void

202:                                              ; preds = %193
  unreachable
}