; Function Attrs: nounwind uwtable
define internal fastcc void @slot_modify_data(ptr noundef %0, ptr noundef %1, ptr noundef readonly captures(none) %2, ptr noundef readonly captures(none) %3) unnamed_addr #0 {
  %5 = alloca i32, align 4
  %6 = alloca i32, align 4
  %7 = alloca i32, align 4
  %8 = alloca i32, align 4
  %9 = getelementptr inbounds nuw i8, ptr %0, i64 16
  %10 = load ptr, ptr %9, align 8
  %11 = load i32, ptr %10, align 8
  %12 = getelementptr inbounds nuw i8, ptr %0, i64 8
  %13 = load ptr, ptr %12, align 8
  %14 = getelementptr inbounds nuw i8, ptr %13, i64 24
  %15 = load ptr, ptr %14, align 8
  tail call void %15(ptr noundef %0) #17
  %16 = getelementptr inbounds nuw i8, ptr %1, i64 16
  %17 = load ptr, ptr %16, align 8
  %18 = load i32, ptr %17, align 8
  %19 = getelementptr inbounds nuw i8, ptr %1, i64 6
  %20 = load i16, ptr %19, align 2
  %21 = sext i16 %20 to i32
  %22 = icmp sgt i32 %18, %21
  br i1 %22, label %23, label %slot_getallattrs.exit

23:                                               ; preds = %4
  tail call void @slot_getsomeattrs_int(ptr noundef nonnull %1, i32 noundef %18) #17
  br label %slot_getallattrs.exit

slot_getallattrs.exit:                            ; preds = %4, %23
  %24 = getelementptr inbounds nuw i8, ptr %0, i64 24
  %25 = load ptr, ptr %24, align 8
  %26 = getelementptr inbounds nuw i8, ptr %1, i64 24
  %27 = load ptr, ptr %26, align 8
  %28 = sext i32 %11 to i64
  %29 = shl nsw i64 %28, 3
  tail call void @llvm.memcpy.p0.p0.i64(ptr align 8 %25, ptr align 8 %27, i64 %29, i1 false)
  %30 = getelementptr inbounds nuw i8, ptr %0, i64 32
  %31 = load ptr, ptr %30, align 8
  %32 = getelementptr inbounds nuw i8, ptr %1, i64 32
  %33 = load ptr, ptr %32, align 8
  tail call void @llvm.memcpy.p0.p0.i64(ptr align 1 %31, ptr align 1 %33, i64 %28, i1 false)
  %34 = icmp sgt i32 %11, 0
  br i1 %34, label %.lr.ph, label %._crit_edge

.lr.ph:                                           ; preds = %slot_getallattrs.exit
  %35 = getelementptr inbounds nuw i8, ptr %2, i64 80
  %36 = getelementptr inbounds nuw i8, ptr %3, i64 8
  %wide.trip.count = zext nneg i32 %11 to i64
  br label %37

37:                                               ; preds = %.lr.ph, %100
  %indvars.iv = phi i64 [ 0, %.lr.ph ], [ %indvars.iv.next, %100 ]
  %38 = load ptr, ptr %9, align 8
  %39 = load i32, ptr %38, align 8
  %40 = sext i32 %39 to i64
  %41 = shl nsw i64 %40, 4
  %42 = getelementptr i8, ptr %38, i64 %41
  %43 = getelementptr i8, ptr %42, i64 24
  %44 = getelementptr inbounds nuw %struct.FormData_pg_attribute, ptr %43, i64 %indvars.iv
  %45 = load ptr, ptr %35, align 8
  %46 = load ptr, ptr %45, align 8
  %47 = getelementptr inbounds nuw i16, ptr %46, i64 %indvars.iv
  %48 = load i16, ptr %47, align 2
  %49 = sext i16 %48 to i32
  %50 = icmp slt i16 %48, 0
  br i1 %50, label %100, label %51

51:                                               ; preds = %37
  %52 = load ptr, ptr %36, align 8
  %53 = zext nneg i32 %49 to i64
  %54 = getelementptr inbounds nuw i8, ptr %52, i64 %53
  %55 = load i8, ptr %54, align 1
  %.not = icmp eq i8 %55, 117
  br i1 %.not, label %100, label %56

56:                                               ; preds = %51
  %57 = load ptr, ptr %3, align 8
  %58 = getelementptr inbounds nuw %struct.StringInfoData, ptr %57, i64 %53
  store i32 %49, ptr @apply_error_callback_arg.2, align 8
  switch i8 %55, label %94 [
    i8 116, label %59
    i8 98, label %72
  ]

59:                                               ; preds = %56
  call void @llvm.lifetime.start.p0(i64 4, ptr nonnull %5) #17
  call void @llvm.lifetime.start.p0(i64 4, ptr nonnull %6) #17
  %60 = getelementptr inbounds nuw i8, ptr %44, i64 68
  %61 = load i32, ptr %60, align 4
  call void @getTypeInputInfo(i32 noundef %61, ptr noundef nonnull %5, ptr noundef nonnull %6) #17
  %62 = load i32, ptr %5, align 4
  %63 = load ptr, ptr %58, align 8
  %64 = load i32, ptr %6, align 4
  %65 = getelementptr inbounds nuw i8, ptr %44, i64 76
  %66 = load i32, ptr %65, align 4
  %67 = call i64 @OidInputFunctionCall(i32 noundef %62, ptr noundef %63, i32 noundef %64, i32 noundef %66) #17
  %68 = load ptr, ptr %24, align 8
  %69 = getelementptr inbounds nuw i64, ptr %68, i64 %indvars.iv
  store i64 %67, ptr %69, align 8
  %70 = load ptr, ptr %30, align 8
  %71 = getelementptr inbounds nuw i8, ptr %70, i64 %indvars.iv
  store i8 0, ptr %71, align 1
  call void @llvm.lifetime.end.p0(i64 4, ptr nonnull %6) #17
  call void @llvm.lifetime.end.p0(i64 4, ptr nonnull %5) #17
  br label %99

72:                                               ; preds = %56
  call void @llvm.lifetime.start.p0(i64 4, ptr nonnull %7) #17
  call void @llvm.lifetime.start.p0(i64 4, ptr nonnull %8) #17
  %73 = getelementptr inbounds nuw i8, ptr %58, i64 16
  store i32 0, ptr %73, align 8
  %74 = getelementptr inbounds nuw i8, ptr %44, i64 68
  %75 = load i32, ptr %74, align 4
  call void @getTypeBinaryInputInfo(i32 noundef %75, ptr noundef nonnull %7, ptr noundef nonnull %8) #17
  %76 = load i32, ptr %7, align 4
  %77 = load i32, ptr %8, align 4
  %78 = getelementptr inbounds nuw i8, ptr %44, i64 76
  %79 = load i32, ptr %78, align 4
  %80 = call i64 @OidReceiveFunctionCall(i32 noundef %76, ptr noundef %58, i32 noundef %77, i32 noundef %79) #17
  %81 = load ptr, ptr %24, align 8
  %82 = getelementptr inbounds nuw i64, ptr %81, i64 %indvars.iv
  store i64 %80, ptr %82, align 8
  %83 = load i32, ptr %73, align 8
  %84 = getelementptr inbounds nuw i8, ptr %58, i64 8
  %85 = load i32, ptr %84, align 8
  %.not50 = icmp eq i32 %83, %85
  br i1 %.not50, label %91, label %86

86:                                               ; preds = %72
  %87 = call zeroext i1 @errstart_cold(i32 noundef 21, ptr noundef null) #18
  call void @llvm.assume(i1 %87)
  %88 = call i32 @errcode(i32 noundef 50462850) #17
  %89 = add nuw nsw i32 %49, 1
  %90 = call i32 (ptr, ...) @errmsg(ptr noundef nonnull @.str.50, i32 noundef %89) #17
  call void @errfinish(ptr noundef nonnull @.str.3, i32 noundef 967, ptr noundef nonnull @__func__.slot_modify_data) #17
  unreachable

91:                                               ; preds = %72
  %92 = load ptr, ptr %30, align 8
  %93 = getelementptr inbounds nuw i8, ptr %92, i64 %indvars.iv
  store i8 0, ptr %93, align 1
  call void @llvm.lifetime.end.p0(i64 4, ptr nonnull %8) #17
  call void @llvm.lifetime.end.p0(i64 4, ptr nonnull %7) #17
  br label %99

94:                                               ; preds = %56
  %95 = load ptr, ptr %24, align 8
  %96 = getelementptr inbounds nuw i64, ptr %95, i64 %indvars.iv
  store i64 0, ptr %96, align 8
  %97 = load ptr, ptr %30, align 8
  %98 = getelementptr inbounds nuw i8, ptr %97, i64 %indvars.iv
  store i8 1, ptr %98, align 1
  br label %99

99:                                               ; preds = %91, %94, %59
  store i32 -1, ptr @apply_error_callback_arg.2, align 8
  br label %100

100:                                              ; preds = %51, %99, %37
  %indvars.iv.next = add nuw nsw i64 %indvars.iv, 1
  %exitcond.not = icmp eq i64 %indvars.iv.next, %wide.trip.count
  br i1 %exitcond.not, label %._crit_edge, label %37, !llvm.loop !15

._crit_edge:                                      ; preds = %100, %slot_getallattrs.exit
  %101 = call ptr @ExecStoreVirtualTuple(ptr noundef nonnull %0) #17
  ret void
}